target datalayout = "e-m:e-p270:32:32-p271:32:32-p272:64:64-i64:64-i128:128-f80:128-n8:16:32:64-S128"
target triple = "x86_64-pc-linux-gnu"

%"class.std::__cxx11::basic_string" = type { %"struct.std::__cxx11::basic_string<char>::_Alloc_hider", i64, %union.anon }
%"struct.std::__cxx11::basic_string<char>::_Alloc_hider" = type { ptr }
%union.anon = type { i64, [8 x i8] }
%"class.cvc5::parser::Command" = type { %"class.std::shared_ptr" }
%"class.std::shared_ptr" = type { %"class.std::__shared_ptr" }
%"class.std::__shared_ptr" = type { ptr, %"class.std::__shared_count" }
%"class.std::__shared_count" = type { ptr }
%"class.cvc5::DriverOptions" = type { ptr }
%"class.cvc5::parser::CommandInterrupted" = type { %"class.cvc5::parser::CommandStatus" }
%"class.cvc5::parser::CommandStatus" = type { ptr }
%"class.cvc5::main::ExecutionContext" = type { ptr, %"class.std::optional" }
%"class.std::optional" = type { %"struct.std::_Optional_base" }
%"struct.std::_Optional_base" = type { %"struct.std::_Optional_payload" }
%"struct.std::_Optional_payload" = type { %"struct.std::_Optional_payload.base", [7 x i8] }
%"struct.std::_Optional_payload.base" = type { %"struct.std::_Optional_payload_base.base" }
%"struct.std::_Optional_payload_base.base" = type <{ %"union.std::_Optional_payload_base<std::__cxx11::basic_string<char>>::_Storage", i8 }>
%"union.std::_Optional_payload_base<std::__cxx11::basic_string<char>>::_Storage" = type { %"class.std::__cxx11::basic_string" }
%"struct.std::_Vector_base" = type { %"struct.std::_Vector_base<cvc5::parser::Command, std::allocator<cvc5::parser::Command>>::_Vector_impl" }
%"struct.std::_Vector_base<cvc5::parser::Command, std::allocator<cvc5::parser::Command>>::_Vector_impl" = type { %"struct.std::_Vector_base<cvc5::parser::Command, std::allocator<cvc5::parser::Command>>::_Vector_impl_data" }
%"struct.std::_Vector_base<cvc5::parser::Command, std::allocator<cvc5::parser::Command>>::_Vector_impl_data" = type { ptr, ptr, ptr }
%"class.__gnu_cxx::__normal_iterator" = type { ptr }
%"class.cvc5::main::CommandExecutor" = type <{ ptr, ptr, %"class.std::unique_ptr.20", %"class.cvc5::Result", i8, [7 x i8] }>
%"class.std::unique_ptr.20" = type { %"struct.std::__uniq_ptr_data.21" }
%"struct.std::__uniq_ptr_data.21" = type { %"class.std::__uniq_ptr_impl.22" }
%"class.std::__uniq_ptr_impl.22" = type { %"class.std::tuple.23" }
%"class.std::tuple.23" = type { %"struct.std::_Tuple_impl.24" }
%"struct.std::_Tuple_impl.24" = type { %"struct.std::_Head_base.27" }
%"struct.std::_Head_base.27" = type { ptr }
%"class.cvc5::Result" = type { %"class.std::shared_ptr.28" }
%"class.std::shared_ptr.28" = type { %"class.std::__shared_ptr.29" }
%"class.std::__shared_ptr.29" = type { ptr, %"class.std::__shared_count" }
%"class.std::unique_ptr.107" = type { %"struct.std::__uniq_ptr_data.108" }
%"struct.std::__uniq_ptr_data.108" = type { %"class.std::__uniq_ptr_impl.109" }
%"class.std::__uniq_ptr_impl.109" = type { %"class.std::tuple.110" }
%"class.std::tuple.110" = type { %"struct.std::_Tuple_impl.111" }
%"struct.std::_Tuple_impl.111" = type { %"struct.std::_Head_base.114" }
%"struct.std::_Head_base.114" = type { ptr }

@_ZTIN4cvc56parser3CmdE = external constant ptr
@_ZTIN4cvc56parser11QuitCommandE = external constant ptr
@_ZTVN4cvc56parser18CommandInterruptedE = external unnamed_addr constant { [6 x ptr] }, align 8
@_ZTVN4cvc56parser13CommandStatusE = linkonce_odr unnamed_addr constant { [6 x ptr] } { [6 x ptr] [ptr null, ptr @_ZTIN4cvc56parser13CommandStatusE, ptr @_ZN4cvc56parser13CommandStatusD2Ev, ptr @_ZN4cvc56parser13CommandStatusD0Ev, ptr @__cxa_pure_virtual, ptr @__cxa_pure_virtual] }, comdat, align 8

; Function Attrs: mustprogress nounwind uwtable
define linkonce_odr hidden noundef nonnull align 8 dereferenceable(8) ptr @_ZNSt10_Head_baseILm0EPN4cvc56SolverELb0EE7_M_headERKS3_(ptr noundef nonnull align 8 dereferenceable(8) %0) #8 comdat align 2 {
  %2 = alloca ptr, align 8
  store ptr %0, ptr %2, align 8, !tbaa !148
  %3 = load ptr, ptr %2, align 8, !tbaa !148
  %4 = getelementptr inbounds nuw %"struct.std::_Head_base.114", ptr %3, i32 0, i32 0
  ret ptr %4
}

; Function Attrs: mustprogress nounwind uwtable
define linkonce_odr hidden noundef nonnull align 8 dereferenceable(8) ptr @_ZNSt11_Tuple_implILm0EJPN4cvc56SolverESt14default_deleteIS1_EEE7_M_headERKS5_(ptr noundef nonnull align 8 dereferenceable(8) %0) #8 comdat align 2 {
  %2 = alloca ptr, align 8
  store ptr %0, ptr %2, align 8, !tbaa !146
  %3 = load ptr, ptr %2, align 8, !tbaa !146
  %4 = call noundef nonnull align 8 dereferenceable(8) ptr @_ZNSt10_Head_baseILm0EPN4cvc56SolverELb0EE7_M_headERKS3_(ptr noundef nonnull align 8 dereferenceable(8) %3) #3
  ret ptr %4
}

; Function Attrs: mustprogress nounwind uwtable
define linkonce_odr noundef nonnull align 8 dereferenceable(8) ptr @_ZSt12__get_helperILm0EPN4cvc56SolverEJSt14default_deleteIS1_EEERKT0_RKSt11_Tuple_implIXT_EJS5_DpT1_EE(ptr noundef nonnull align 8 dereferenceable(8) %0) #8 comdat {
  %2 = alloca ptr, align 8
  store ptr %0, ptr %2, align 8, !tbaa !146
  %3 = load ptr, ptr %2, align 8, !tbaa !146
  %4 = call noundef nonnull align 8 dereferenceable(8) ptr @_ZNSt11_Tuple_implILm0EJPN4cvc56SolverESt14default_deleteIS1_EEE7_M_headERKS5_(ptr noundef nonnull align 8 dereferenceable(8) %3) #3
  ret ptr %4
}

; Function Attrs: mustprogress nounwind uwtable
define linkonce_odr noundef nonnull align 8 dereferenceable(8) ptr @_ZSt3getILm0EJPN4cvc56SolverESt14default_deleteIS1_EEERKNSt13tuple_elementIXT_ESt5tupleIJDpT0_EEE4typeERKS9_(ptr noundef nonnull align 8 dereferenceable(8) %0) #8 comdat {
  %2 = alloca ptr, align 8
  store ptr %0, ptr %2, align 8, !tbaa !144
  %3 = load ptr, ptr %2, align 8, !tbaa !144
  %4 = call noundef nonnull align 8 dereferenceable(8) ptr @_ZSt12__get_helperILm0EPN4cvc56SolverEJSt14default_deleteIS1_EEERKT0_RKSt11_Tuple_implIXT_EJS5_DpT1_EE(ptr noundef nonnull align 8 dereferenceable(8) %3) #3
  ret ptr %4
}

; Function Attrs: mustprogress nounwind uwtable
define linkonce_odr hidden noundef ptr @_ZNKSt15__uniq_ptr_implIN4cvc56SolverESt14default_deleteIS1_EE6_M_ptrEv(ptr noundef nonnull align 8 dereferenceable(8) %0) #8 comdat align 2 {
  %2 = alloca ptr, align 8
  store ptr %0, ptr %2, align 8, !tbaa !142
  %3 = load ptr, ptr %2, align 8
  %4 = getelementptr inbounds nuw %"class.std::__uniq_ptr_impl.109", ptr %3, i32 0, i32 0
  %5 = call noundef nonnull align 8 dereferenceable(8) ptr @_ZSt3getILm0EJPN4cvc56SolverESt14default_deleteIS1_EEERKNSt13tuple_elementIXT_ESt5tupleIJDpT0_EEE4typeERKS9_(ptr noundef nonnull align 8 dereferenceable(8) %4) #3
  %6 = load ptr, ptr %5, align 8, !tbaa !61
  ret ptr %6
}

; Function Attrs: mustprogress nounwind uwtable
define linkonce_odr hidden noundef ptr @_ZNKSt10unique_ptrIN4cvc56SolverESt14default_deleteIS1_EE3getEv(ptr noundef nonnull align 8 dereferenceable(8) %0) #8 comdat align 2 {
  %2 = alloca ptr, align 8
  store ptr %0, ptr %2, align 8, !tbaa !141
  %3 = load ptr, ptr %2, align 8
  %4 = getelementptr inbounds nuw %"class.std::unique_ptr.107", ptr %3, i32 0, i32 0
  %5 = call noundef ptr @_ZNKSt15__uniq_ptr_implIN4cvc56SolverESt14default_deleteIS1_EE6_M_ptrEv(ptr noundef nonnull align 8 dereferenceable(8) %4) #3
  ret ptr %5
}

; Function Attrs: mustprogress nounwind uwtable
define linkonce_odr hidden void @_ZN4cvc56parser13CommandStatusC2Ev(ptr noundef nonnull align 8 dereferenceable(8) %0) unnamed_addr #8 comdat align 2 {
  %2 = alloca ptr, align 8
  store ptr %0, ptr %2, align 8, !tbaa !32
  %3 = load ptr, ptr %2, align 8
  store ptr getelementptr inbounds inrange(-16, 32) ({ [6 x ptr] }, ptr @_ZTVN4cvc56parser13CommandStatusE, i32 0, i32 0, i32 2), ptr %3, align 8, !tbaa !30
  ret void
}

; Function Attrs: mustprogress nounwind uwtable
define linkonce_odr hidden noundef ptr @_ZN4cvc54main15CommandExecutor9getSolverEv(ptr noundef nonnull align 8 dereferenceable(41) %0) #8 comdat align 2 {
  %2 = alloca ptr, align 8
  store ptr %0, ptr %2, align 8, !tbaa !126
  %3 = load ptr, ptr %2, align 8
  %4 = getelementptr inbounds nuw %"class.cvc5::main::CommandExecutor", ptr %3, i32 0, i32 1
  %5 = load ptr, ptr %4, align 8, !tbaa !127
  %6 = call noundef ptr @_ZNKSt10unique_ptrIN4cvc56SolverESt14default_deleteIS1_EE3getEv(ptr noundef nonnull align 8 dereferenceable(8) %5) #3
  ret ptr %6
}

; Function Attrs: mustprogress nounwind uwtable
define linkonce_odr hidden noundef nonnull align 8 dereferenceable(8) ptr @_ZNK9__gnu_cxx17__normal_iteratorIPN4cvc56parser7CommandESt6vectorIS3_SaIS3_EEE4baseEv(ptr noundef nonnull align 8 dereferenceable(8) %0) #8 comdat align 2 {
  %2 = alloca ptr, align 8
  store ptr %0, ptr %2, align 8, !tbaa !53
  %3 = load ptr, ptr %2, align 8
  %4 = getelementptr inbounds nuw %"class.__gnu_cxx::__normal_iterator", ptr %3, i32 0, i32 0
  ret ptr %4
}

; Function Attrs: mustprogress nounwind uwtable
define linkonce_odr hidden void @_ZN9__gnu_cxx17__normal_iteratorIPN4cvc56parser7CommandESt6vectorIS3_SaIS3_EEEC2ERKS4_(ptr noundef nonnull align 8 dereferenceable(8) %0, ptr noundef nonnull align 8 dereferenceable(8) %1) unnamed_addr #8 comdat align 2 {
  %3 = alloca ptr, align 8
  %4 = alloca ptr, align 8
  store ptr %0, ptr %3, align 8, !tbaa !53
  store ptr %1, ptr %4, align 8, !tbaa !458
  %5 = load ptr, ptr %3, align 8
  %6 = getelementptr inbounds nuw %"class.__gnu_cxx::__normal_iterator", ptr %5, i32 0, i32 0
  %7 = load ptr, ptr %4, align 8, !tbaa !458
  %8 = load ptr, ptr %7, align 8, !tbaa !34
  store ptr %8, ptr %6, align 8, !tbaa !55
  ret void
}

; Function Attrs: mustprogress nounwind uwtable
define linkonce_odr hidden noundef nonnull align 8 dereferenceable(8) ptr @_ZN9__gnu_cxx17__normal_iteratorIPN4cvc56parser7CommandESt6vectorIS3_SaIS3_EEEppEv(ptr noundef nonnull align 8 dereferenceable(8) %0) #8 comdat align 2 {
  %2 = alloca ptr, align 8
  store ptr %0, ptr %2, align 8, !tbaa !53
  %3 = load ptr, ptr %2, align 8
  %4 = getelementptr inbounds nuw %"class.__gnu_cxx::__normal_iterator", ptr %3, i32 0, i32 0
  %5 = load ptr, ptr %4, align 8, !tbaa !55
  %6 = getelementptr inbounds nuw %"class.cvc5::parser::Command", ptr %5, i32 1
  store ptr %6, ptr %4, align 8, !tbaa !55
  ret ptr %3
}

; Function Attrs: mustprogress nounwind uwtable
define linkonce_odr hidden noundef ptr @_ZNKSt12__shared_ptrIN4cvc56parser3CmdELN9__gnu_cxx12_Lock_policyE2EE3getEv(ptr noundef nonnull align 8 dereferenceable(16) %0) #8 comdat align 2 {
  %2 = alloca ptr, align 8
  store ptr %0, ptr %2, align 8, !tbaa !36
  %3 = load ptr, ptr %2, align 8
  %4 = getelementptr inbounds nuw %"class.std::__shared_ptr", ptr %3, i32 0, i32 0
  %5 = load ptr, ptr %4, align 8, !tbaa !38
  ret ptr %5
}

; Function Attrs: mustprogress nounwind uwtable
define linkonce_odr hidden void @_ZN4cvc56parser13CommandStatusD2Ev(ptr noundef nonnull align 8 dereferenceable(8) %0) unnamed_addr #8 comdat align 2 {
  %2 = alloca ptr, align 8
  store ptr %0, ptr %2, align 8, !tbaa !32
  ret void
}

; Function Attrs: inlinehint mustprogress uwtable
define linkonce_odr hidden void @_ZN4cvc56parser18CommandInterruptedC2Ev(ptr noundef nonnull align 8 dereferenceable(8) %0) unnamed_addr #7 comdat align 2 {
  %2 = alloca ptr, align 8
  store ptr %0, ptr %2, align 8, !tbaa !28
  %3 = load ptr, ptr %2, align 8
  call void @_ZN4cvc56parser13CommandStatusC2Ev(ptr noundef nonnull align 8 dereferenceable(8) %3)
  store ptr getelementptr inbounds inrange(-16, 32) ({ [6 x ptr] }, ptr @_ZTVN4cvc56parser18CommandInterruptedE, i32 0, i32 0, i32 2), ptr %3, align 8, !tbaa !30
  ret void
}

; Function Attrs: mustprogress uwtable
define linkonce_odr hidden noundef nonnull align 8 dereferenceable(32) ptr @_ZN4cvc54main16ExecutionContext6solverEv(ptr noundef nonnull align 8 dereferenceable(48) %0) #4 comdat align 2 {
  %2 = alloca ptr, align 8
  store ptr %0, ptr %2, align 8, !tbaa !3
  %3 = load ptr, ptr %2, align 8
  %4 = getelementptr inbounds nuw %"class.cvc5::main::ExecutionContext", ptr %3, i32 0, i32 0
  %5 = load ptr, ptr %4, align 8, !tbaa !14
  %6 = call noundef ptr @_ZN4cvc54main15CommandExecutor9getSolverEv(ptr noundef nonnull align 8 dereferenceable(41) %5)
  ret ptr %6
}

; Function Attrs: mustprogress nounwind uwtable
define linkonce_odr hidden noundef nonnull align 8 dereferenceable(16) ptr @_ZNK9__gnu_cxx17__normal_iteratorIPN4cvc56parser7CommandESt6vectorIS3_SaIS3_EEEdeEv(ptr noundef nonnull align 8 dereferenceable(8) %0) #8 comdat align 2 {
  %2 = alloca ptr, align 8
  store ptr %0, ptr %2, align 8, !tbaa !53
  %3 = load ptr, ptr %2, align 8
  %4 = getelementptr inbounds nuw %"class.__gnu_cxx::__normal_iterator", ptr %3, i32 0, i32 0
  %5 = load ptr, ptr %4, align 8, !tbaa !55
  ret ptr %5
}

; Function Attrs: inlinehint mustprogress nounwind uwtable
define linkonce_odr noundef zeroext i1 @_ZN9__gnu_cxxneIPN4cvc56parser7CommandESt6vectorIS3_SaIS3_EEEEbRKNS_17__normal_iteratorIT_T0_EESD_(ptr noundef nonnull align 8 dereferenceable(8) %0, ptr noundef nonnull align 8 dereferenceable(8) %1) #9 comdat {
  %3 = alloca ptr, align 8
  %4 = alloca ptr, align 8
  store ptr %0, ptr %3, align 8, !tbaa !53
  store ptr %1, ptr %4, align 8, !tbaa !53
  %5 = load ptr, ptr %3, align 8, !tbaa !53
  %6 = call noundef nonnull align 8 dereferenceable(8) ptr @_ZNK9__gnu_cxx17__normal_iteratorIPN4cvc56parser7CommandESt6vectorIS3_SaIS3_EEE4baseEv(ptr noundef nonnull align 8 dereferenceable(8) %5) #3
  %7 = load ptr, ptr %6, align 8, !tbaa !34
  %8 = load ptr, ptr %4, align 8, !tbaa !53
  %9 = call noundef nonnull align 8 dereferenceable(8) ptr @_ZNK9__gnu_cxx17__normal_iteratorIPN4cvc56parser7CommandESt6vectorIS3_SaIS3_EEE4baseEv(ptr noundef nonnull align 8 dereferenceable(8) %8) #3
  %10 = load ptr, ptr %9, align 8, !tbaa !34
  %11 = icmp ne ptr %7, %10
  ret i1 %11
}

; Function Attrs: mustprogress nounwind uwtable
define linkonce_odr hidden ptr @_ZNSt6vectorIN4cvc56parser7CommandESaIS2_EE3endEv(ptr noundef nonnull align 8 dereferenceable(24) %0) #8 comdat align 2 {
  %2 = alloca %"class.__gnu_cxx::__normal_iterator", align 8
  %3 = alloca ptr, align 8
  store ptr %0, ptr %3, align 8, !tbaa !47
  %4 = load ptr, ptr %3, align 8
  %5 = getelementptr inbounds nuw %"struct.std::_Vector_base", ptr %4, i32 0, i32 0
  %6 = getelementptr inbounds nuw %"struct.std::_Vector_base<cvc5::parser::Command, std::allocator<cvc5::parser::Command>>::_Vector_impl_data", ptr %5, i32 0, i32 1
  call void @_ZN9__gnu_cxx17__normal_iteratorIPN4cvc56parser7CommandESt6vectorIS3_SaIS3_EEEC2ERKS4_(ptr noundef nonnull align 8 dereferenceable(8) %2, ptr noundef nonnull align 8 dereferenceable(8) %6) #3
  %7 = getelementptr inbounds nuw %"class.__gnu_cxx::__normal_iterator", ptr %2, i32 0, i32 0
  %8 = load ptr, ptr %7, align 8
  ret ptr %8
}

; Function Attrs: mustprogress nounwind uwtable
define linkonce_odr hidden ptr @_ZNSt6vectorIN4cvc56parser7CommandESaIS2_EE5beginEv(ptr noundef nonnull align 8 dereferenceable(24) %0) #8 comdat align 2 {
  %2 = alloca %"class.__gnu_cxx::__normal_iterator", align 8
  %3 = alloca ptr, align 8
  store ptr %0, ptr %3, align 8, !tbaa !47
  %4 = load ptr, ptr %3, align 8
  %5 = getelementptr inbounds nuw %"struct.std::_Vector_base", ptr %4, i32 0, i32 0
  %6 = getelementptr inbounds nuw %"struct.std::_Vector_base<cvc5::parser::Command, std::allocator<cvc5::parser::Command>>::_Vector_impl_data", ptr %5, i32 0, i32 0
  call void @_ZN9__gnu_cxx17__normal_iteratorIPN4cvc56parser7CommandESt6vectorIS3_SaIS3_EEEC2ERKS4_(ptr noundef nonnull align 8 dereferenceable(8) %2, ptr noundef nonnull align 8 dereferenceable(8) %6) #3
  %7 = getelementptr inbounds nuw %"class.__gnu_cxx::__normal_iterator", ptr %2, i32 0, i32 0
  %8 = load ptr, ptr %7, align 8
  ret ptr %8
}

; Function Attrs: mustprogress uwtable
define hidden noundef zeroext i1 @_ZN4cvc54main16ExecutionContext13solveCommandsERSt6vectorINS_6parser7CommandESaIS4_EE(ptr noundef nonnull align 8 dereferenceable(48) %0, ptr noundef nonnull align 8 dereferenceable(24) %1) #4 align 2 personality ptr @__gxx_personality_v0 {
  %3 = alloca ptr, align 8
  %4 = alloca ptr, align 8
  %5 = alloca i8, align 1
  %6 = alloca i8, align 1
  %7 = alloca ptr, align 8
  %8 = alloca %"class.__gnu_cxx::__normal_iterator", align 8
  %9 = alloca %"class.__gnu_cxx::__normal_iterator", align 8
  %10 = alloca i32, align 4
  %11 = alloca ptr, align 8
  %12 = alloca %"class.cvc5::DriverOptions", align 8
  %13 = alloca %"class.cvc5::parser::CommandInterrupted", align 8
  %14 = alloca ptr, align 8
  %15 = alloca i32, align 4
  %16 = alloca ptr, align 8
  store ptr %0, ptr %3, align 8, !tbaa !3
  store ptr %1, ptr %4, align 8, !tbaa !47
  %17 = load ptr, ptr %3, align 8
  call void @llvm.lifetime.start.p0(i64 1, ptr %5) #3
  store i8 0, ptr %5, align 1, !tbaa !10
  call void @llvm.lifetime.start.p0(i64 1, ptr %6) #3
  store i8 1, ptr %6, align 1, !tbaa !10
  call void @llvm.lifetime.start.p0(i64 8, ptr %7) #3
  %18 = load ptr, ptr %4, align 8, !tbaa !47
  store ptr %18, ptr %7, align 8, !tbaa !47
  call void @llvm.lifetime.start.p0(i64 8, ptr %8) #3
  %19 = load ptr, ptr %7, align 8, !tbaa !47
  %20 = call ptr @_ZNSt6vectorIN4cvc56parser7CommandESaIS2_EE5beginEv(ptr noundef nonnull align 8 dereferenceable(24) %19) #3
  %21 = getelementptr inbounds nuw %"class.__gnu_cxx::__normal_iterator", ptr %8, i32 0, i32 0
  store ptr %20, ptr %21, align 8
  call void @llvm.lifetime.start.p0(i64 8, ptr %9) #3
  %22 = load ptr, ptr %7, align 8, !tbaa !47
  %23 = call ptr @_ZNSt6vectorIN4cvc56parser7CommandESaIS2_EE3endEv(ptr noundef nonnull align 8 dereferenceable(24) %22) #3
  %24 = getelementptr inbounds nuw %"class.__gnu_cxx::__normal_iterator", ptr %9, i32 0, i32 0
  store ptr %23, ptr %24, align 8
  br label %25

25:                                               ; preds = %79, %2
  %26 = call noundef zeroext i1 @_ZN9__gnu_cxxneIPN4cvc56parser7CommandESt6vectorIS3_SaIS3_EEEEbRKNS_17__normal_iteratorIT_T0_EESD_(ptr noundef nonnull align 8 dereferenceable(8) %8, ptr noundef nonnull align 8 dereferenceable(8) %9) #3
  br i1 %26, label %28, label %27

27:                                               ; preds = %25
  store i32 2, ptr %10, align 4
  br label %81

28:                                               ; preds = %25
  call void @llvm.lifetime.start.p0(i64 8, ptr %11) #3
  %29 = call noundef nonnull align 8 dereferenceable(16) ptr @_ZNK9__gnu_cxx17__normal_iteratorIPN4cvc56parser7CommandESt6vectorIS3_SaIS3_EEEdeEv(ptr noundef nonnull align 8 dereferenceable(8) %8) #3
  store ptr %29, ptr %11, align 8, !tbaa !34
  %30 = load i8, ptr %5, align 1, !tbaa !10, !range !12, !noundef !13
  %31 = trunc i8 %30 to i1
  br i1 %31, label %32, label %45

32:                                               ; preds = %28
  call void @llvm.lifetime.start.p0(i64 8, ptr %12) #3
  %33 = call noundef nonnull align 8 dereferenceable(32) ptr @_ZN4cvc54main16ExecutionContext6solverEv(ptr noundef nonnull align 8 dereferenceable(48) %17)
  %34 = call ptr @_ZNK4cvc56Solver16getDriverOptionsEv(ptr noundef nonnull align 8 dereferenceable(32) %33)
  %35 = getelementptr inbounds nuw %"class.cvc5::DriverOptions", ptr %12, i32 0, i32 0
  store ptr %34, ptr %35, align 8
  %36 = call noundef nonnull align 8 dereferenceable(8) ptr @_ZNK4cvc513DriverOptions3outEv(ptr noundef nonnull align 8 dereferenceable(8) %12)
  call void @llvm.lifetime.start.p0(i64 8, ptr %13) #3
  call void @llvm.memset.p0.i64(ptr align 8 %13, i8 0, i64 8, i1 false)
  call void @_ZN4cvc56parser18CommandInterruptedC2Ev(ptr noundef nonnull align 8 dereferenceable(8) %13)
  %37 = invoke noundef nonnull align 8 dereferenceable(8) ptr @_ZN4cvc56parserlsERSoRKNS0_13CommandStatusE(ptr noundef nonnull align 8 dereferenceable(8) %36, ptr noundef nonnull align 8 dereferenceable(8) %13)
          to label %38 unwind label %41

38:                                               ; preds = %32
  call void @_ZN4cvc56parser13CommandStatusD2Ev(ptr noundef nonnull align 8 dereferenceable(8) %13) #3
  call void @llvm.lifetime.end.p0(i64 8, ptr %13) #3
  call void @llvm.lifetime.end.p0(i64 8, ptr %12) #3
  %39 = getelementptr inbounds nuw %"class.cvc5::main::ExecutionContext", ptr %17, i32 0, i32 0
  %40 = load ptr, ptr %39, align 8, !tbaa !14
  call void @_ZN4cvc54main15CommandExecutor5resetEv(ptr noundef nonnull align 8 dereferenceable(41) %40)
  store i32 2, ptr %10, align 4
  br label %76

41:                                               ; preds = %32
  %42 = landingpad { ptr, i32 }
          cleanup
  %43 = extractvalue { ptr, i32 } %42, 0
  store ptr %43, ptr %14, align 8
  %44 = extractvalue { ptr, i32 } %42, 1
  store i32 %44, ptr %15, align 4
  call void @_ZN4cvc56parser13CommandStatusD2Ev(ptr noundef nonnull align 8 dereferenceable(8) %13) #3
  call void @llvm.lifetime.end.p0(i64 8, ptr %13) #3
  call void @llvm.lifetime.end.p0(i64 8, ptr %12) #3
  call void @llvm.lifetime.end.p0(i64 8, ptr %11) #3
  call void @llvm.lifetime.end.p0(i64 8, ptr %9) #3
  call void @llvm.lifetime.end.p0(i64 8, ptr %8) #3
  call void @llvm.lifetime.end.p0(i64 8, ptr %7) #3
  call void @llvm.lifetime.end.p0(i64 1, ptr %6) #3
  call void @llvm.lifetime.end.p0(i64 1, ptr %5) #3
  br label %85

45:                                               ; preds = %28
  %46 = getelementptr inbounds nuw %"class.cvc5::main::ExecutionContext", ptr %17, i32 0, i32 0
  %47 = load ptr, ptr %46, align 8, !tbaa !14
  %48 = load ptr, ptr %11, align 8, !tbaa !34
  %49 = call noundef zeroext i1 @_ZN4cvc54main15CommandExecutor9doCommandEPNS_6parser7CommandE(ptr noundef nonnull align 8 dereferenceable(41) %47, ptr noundef %48)
  %50 = zext i1 %49 to i8
  store i8 %50, ptr %6, align 1, !tbaa !10
  call void @llvm.lifetime.start.p0(i64 8, ptr %16) #3
  %51 = load ptr, ptr %11, align 8, !tbaa !34
  %52 = getelementptr inbounds nuw %"class.cvc5::parser::Command", ptr %51, i32 0, i32 0
  %53 = call noundef ptr @_ZNKSt12__shared_ptrIN4cvc56parser3CmdELN9__gnu_cxx12_Lock_policyE2EE3getEv(ptr noundef nonnull align 8 dereferenceable(16) %52) #3
  store ptr %53, ptr %16, align 8, !tbaa !22
  %54 = load ptr, ptr %16, align 8, !tbaa !22
  %55 = call noundef zeroext i1 @_ZNK4cvc56parser3Cmd11interruptedEv(ptr noundef nonnull align 8 dereferenceable(16) %54)
  br i1 %55, label %56, label %62

56:                                               ; preds = %45
  %57 = load i8, ptr %6, align 1, !tbaa !10, !range !12, !noundef !13
  %58 = trunc i8 %57 to i1
  %59 = zext i1 %58 to i32
  %60 = icmp eq i32 %59, 0
  br i1 %60, label %61, label %62

61:                                               ; preds = %56
  store i8 1, ptr %5, align 1, !tbaa !10
  store i32 2, ptr %10, align 4
  br label %73

62:                                               ; preds = %56, %45
  %63 = load ptr, ptr %16, align 8, !tbaa !22
  %64 = icmp eq ptr %63, null
  br i1 %64, label %67, label %65

65:                                               ; preds = %62
  %66 = call ptr @__dynamic_cast(ptr %63, ptr @_ZTIN4cvc56parser3CmdE, ptr @_ZTIN4cvc56parser11QuitCommandE, i64 0) #3
  br label %68

67:                                               ; preds = %62
  br label %68

68:                                               ; preds = %67, %65
  %69 = phi ptr [ %66, %65 ], [ null, %67 ]
  %70 = icmp ne ptr %69, null
  br i1 %70, label %71, label %72

71:                                               ; preds = %68
  store i32 2, ptr %10, align 4
  br label %73

72:                                               ; preds = %68
  store i32 0, ptr %10, align 4
  br label %73

73:                                               ; preds = %72, %71, %61
  call void @llvm.lifetime.end.p0(i64 8, ptr %16) #3
  %74 = load i32, ptr %10, align 4
  switch i32 %74, label %76 [
    i32 0, label %75
  ]

75:                                               ; preds = %73
  store i32 0, ptr %10, align 4
  br label %76

76:                                               ; preds = %75, %73, %38
  call void @llvm.lifetime.end.p0(i64 8, ptr %11) #3
  %77 = load i32, ptr %10, align 4
  switch i32 %77, label %81 [
    i32 0, label %78
  ]

78:                                               ; preds = %76
  br label %79

79:                                               ; preds = %78
  %80 = call noundef nonnull align 8 dereferenceable(8) ptr @_ZN9__gnu_cxx17__normal_iteratorIPN4cvc56parser7CommandESt6vectorIS3_SaIS3_EEEppEv(ptr noundef nonnull align 8 dereferenceable(8) %8) #3
  br label %25

81:                                               ; preds = %76, %27
  call void @llvm.lifetime.end.p0(i64 8, ptr %9) #3
  call void @llvm.lifetime.end.p0(i64 8, ptr %8) #3
  call void @llvm.lifetime.end.p0(i64 8, ptr %7) #3
  br label %82

82:                                               ; preds = %81
  %83 = load i8, ptr %6, align 1, !tbaa !10, !range !12, !noundef !13
  %84 = trunc i8 %83 to i1
  store i32 1, ptr %10, align 4
  call void @llvm.lifetime.end.p0(i64 1, ptr %6) #3
  call void @llvm.lifetime.end.p0(i64 1, ptr %5) #3
  ret i1 %84

85:                                               ; preds = %41
  %86 = load ptr, ptr %14, align 8
  %87 = load i32, ptr %15, align 4
  %88 = insertvalue { ptr, i32 } poison, ptr %86, 0
  %89 = insertvalue { ptr, i32 } %88, i32 %87, 1
  resume { ptr, i32 } %89
}