; Function Attrs: mustprogress uwtable
define hidden noundef zeroext i1 @_ZN4cvc54main16ExecutionContext13solveCommandsERSt6vectorINS_6parser7CommandESaIS4_EE(ptr noundef nonnull readonly align 8 captures(none) dereferenceable(48) %0, ptr noundef nonnull readonly align 8 captures(none) dereferenceable(24) %1) local_unnamed_addr #3 align 2 personality ptr @__gxx_personality_v0 {
  %3 = load ptr, ptr %1, align 8, !tbaa !48
  %4 = getelementptr inbounds nuw i8, ptr %1, i64 8
  %5 = load ptr, ptr %4, align 8, !tbaa !48
  %.not2728 = icmp eq ptr %3, %5
  br i1 %.not2728, label %.thread, label %.lr.ph

.lr.ph:                                           ; preds = %2, %10
  %.sroa.021.029 = phi ptr [ %12, %10 ], [ %3, %2 ]
  %6 = load ptr, ptr %0, align 8, !tbaa !22
  %7 = tail call noundef zeroext i1 @_ZN4cvc54main15CommandExecutor9doCommandEPNS_6parser7CommandE(ptr noundef nonnull align 8 dereferenceable(41) %6, ptr noundef nonnull %.sroa.021.029)
  %8 = load ptr, ptr %.sroa.021.029, align 8, !tbaa !3
  %9 = tail call noundef zeroext i1 @_ZNK4cvc56parser3Cmd11interruptedEv(ptr noundef nonnull align 8 dereferenceable(16) %8)
  %.not20 = xor i1 %9, true
  %brmerge = or i1 %7, %.not20
  br i1 %brmerge, label %10, label %.thread

10:                                               ; preds = %.lr.ph
  %11 = tail call ptr @__dynamic_cast(ptr nonnull %8, ptr nonnull @_ZTIN4cvc56parser3CmdE, ptr nonnull @_ZTIN4cvc56parser11QuitCommandE, i64 0) #26
  %.not = icmp ne ptr %11, null
  %12 = getelementptr inbounds nuw i8, ptr %.sroa.021.029, i64 16
  %.not27 = icmp eq ptr %12, %5
  %or.cond = select i1 %.not, i1 true, i1 %.not27
  br i1 %or.cond, label %.thread, label %.lr.ph

.thread:                                          ; preds = %10, %.lr.ph, %2
  %.116 = phi i1 [ true, %2 ], [ %7, %10 ], [ false, %.lr.ph ]
  ret i1 %.116
}